target datalayout = "e-m:e-p270:32:32-p271:32:32-p272:64:64-i64:64-i128:128-f80:128-n8:16:32:64-S128"
target triple = "x86_64-pc-linux-gnu"

%struct.OSQPSolver = type { ptr, ptr, ptr, ptr }
%struct.OSQPWorkspace_ = type { ptr, ptr, ptr, ptr, ptr, ptr, ptr, ptr, ptr, ptr, ptr, ptr, ptr, ptr, ptr, ptr, ptr, ptr, ptr, ptr, ptr, ptr, ptr, ptr, ptr, ptr, double, double, double, ptr, i64, i64, i64, i64, ptr }
%struct.OSQPSettings = type { i64, i32, i64, i64, i64, i64, i64, i64, double, i64, double, double, i64, i64, double, i32, i64, i64, double, double, i64, double, double, double, double, i64, i64, double, double, i64 }
%struct.OSQPInfo = type { [32 x i8], i64, i64, double, double, double, i64, i64, double, double, double, double, double, double }
%struct.linsys_solver = type { i32, ptr, ptr, ptr, ptr, ptr, ptr, ptr, ptr, i64 }

@.str.3 = private unnamed_addr constant [14 x i8] c"ERROR in %s: \00", align 1
@.str.5 = private unnamed_addr constant [2 x i8] c"\0A\00", align 1
@__func__.osqp_update_rho = private unnamed_addr constant [16 x i8] c"osqp_update_rho\00", align 1
@.str.12 = private unnamed_addr constant [21 x i8] c"rho must be positive\00", align 1

; Function Attrs: nounwind uwtable
define i64 @osqp_update_rho(ptr noundef %0, double noundef %1) #0 {
  %3 = alloca i64, align 8
  %4 = alloca ptr, align 8
  %5 = alloca double, align 8
  %6 = alloca i64, align 8
  %7 = alloca ptr, align 8
  store ptr %0, ptr %4, align 8
  store double %1, ptr %5, align 8
  %8 = load ptr, ptr %4, align 8
  %9 = icmp ne ptr %8, null
  br i1 %9, label %10, label %15

10:                                               ; preds = %2
  %11 = load ptr, ptr %4, align 8
  %12 = getelementptr inbounds %struct.OSQPSolver, ptr %11, i32 0, i32 3
  %13 = load ptr, ptr %12, align 8
  %14 = icmp ne ptr %13, null
  br i1 %14, label %17, label %15

15:                                               ; preds = %10, %2
  %16 = call i64 @_osqp_error(i32 noundef 6, ptr noundef @__func__.osqp_update_rho)
  store i64 %16, ptr %3, align 8
  br label %146

17:                                               ; preds = %10
  %18 = load ptr, ptr %4, align 8
  %19 = getelementptr inbounds %struct.OSQPSolver, ptr %18, i32 0, i32 3
  %20 = load ptr, ptr %19, align 8
  store ptr %20, ptr %7, align 8
  %21 = load double, ptr %5, align 8
  %22 = fcmp ole double %21, 0.000000e+00
  br i1 %22, label %23, label %27

23:                                               ; preds = %17
  %24 = call i32 (ptr, ...) @printf(ptr noundef @.str.3, ptr noundef @__func__.osqp_update_rho)
  %25 = call i32 (ptr, ...) @printf(ptr noundef @.str.12)
  %26 = call i32 (ptr, ...) @printf(ptr noundef @.str.5)
  store i64 1, ptr %3, align 8
  br label %146

27:                                               ; preds = %17
  %28 = load ptr, ptr %7, align 8
  %29 = getelementptr inbounds %struct.OSQPWorkspace_, ptr %28, i32 0, i32 32
  %30 = load i64, ptr %29, align 8
  %31 = icmp eq i64 %30, 0
  br i1 %31, label %32, label %48

32:                                               ; preds = %27
  %33 = load ptr, ptr %7, align 8
  %34 = getelementptr inbounds %struct.OSQPWorkspace_, ptr %33, i32 0, i32 31
  %35 = load i64, ptr %34, align 8
  %36 = icmp eq i64 %35, 1
  br i1 %36, label %37, label %44

37:                                               ; preds = %32
  %38 = load ptr, ptr %7, align 8
  %39 = getelementptr inbounds %struct.OSQPWorkspace_, ptr %38, i32 0, i32 31
  store i64 0, ptr %39, align 8
  %40 = load ptr, ptr %4, align 8
  %41 = getelementptr inbounds %struct.OSQPSolver, ptr %40, i32 0, i32 2
  %42 = load ptr, ptr %41, align 8
  %43 = getelementptr inbounds %struct.OSQPInfo, ptr %42, i32 0, i32 11
  store double 0.000000e+00, ptr %43, align 8
  br label %44

44:                                               ; preds = %37, %32
  %45 = load ptr, ptr %7, align 8
  %46 = getelementptr inbounds %struct.OSQPWorkspace_, ptr %45, i32 0, i32 29
  %47 = load ptr, ptr %46, align 8
  call void @osqp_tic(ptr noundef %47)
  br label %48

48:                                               ; preds = %44, %27
  %49 = load double, ptr %5, align 8
  %50 = fcmp ogt double %49, 0x3EB0C6F7A0B5ED8D
  br i1 %50, label %51, label %53

51:                                               ; preds = %48
  %52 = load double, ptr %5, align 8
  br label %54

53:                                               ; preds = %48
  br label %54

54:                                               ; preds = %53, %51
  %55 = phi double [ %52, %51 ], [ 0x3EB0C6F7A0B5ED8D, %53 ]
  %56 = fcmp olt double %55, 1.000000e+06
  br i1 %56, label %57, label %65

57:                                               ; preds = %54
  %58 = load double, ptr %5, align 8
  %59 = fcmp ogt double %58, 0x3EB0C6F7A0B5ED8D
  br i1 %59, label %60, label %62

60:                                               ; preds = %57
  %61 = load double, ptr %5, align 8
  br label %63

62:                                               ; preds = %57
  br label %63

63:                                               ; preds = %62, %60
  %64 = phi double [ %61, %60 ], [ 0x3EB0C6F7A0B5ED8D, %62 ]
  br label %66

65:                                               ; preds = %54
  br label %66

66:                                               ; preds = %65, %63
  %67 = phi double [ %64, %63 ], [ 1.000000e+06, %65 ]
  %68 = load ptr, ptr %4, align 8
  %69 = getelementptr inbounds %struct.OSQPSolver, ptr %68, i32 0, i32 0
  %70 = load ptr, ptr %69, align 8
  %71 = getelementptr inbounds %struct.OSQPSettings, ptr %70, i32 0, i32 8
  store double %67, ptr %71, align 8
  %72 = load ptr, ptr %4, align 8
  %73 = getelementptr inbounds %struct.OSQPSolver, ptr %72, i32 0, i32 0
  %74 = load ptr, ptr %73, align 8
  %75 = getelementptr inbounds %struct.OSQPSettings, ptr %74, i32 0, i32 9
  %76 = load i64, ptr %75, align 8
  %77 = icmp ne i64 %76, 0
  br i1 %77, label %78, label %102

78:                                               ; preds = %66
  %79 = load ptr, ptr %7, align 8
  %80 = getelementptr inbounds %struct.OSQPWorkspace_, ptr %79, i32 0, i32 3
  %81 = load ptr, ptr %80, align 8
  %82 = load ptr, ptr %7, align 8
  %83 = getelementptr inbounds %struct.OSQPWorkspace_, ptr %82, i32 0, i32 5
  %84 = load ptr, ptr %83, align 8
  %85 = load ptr, ptr %4, align 8
  %86 = getelementptr inbounds %struct.OSQPSolver, ptr %85, i32 0, i32 0
  %87 = load ptr, ptr %86, align 8
  %88 = getelementptr inbounds %struct.OSQPSettings, ptr %87, i32 0, i32 8
  %89 = load double, ptr %88, align 8
  %90 = load ptr, ptr %4, align 8
  %91 = getelementptr inbounds %struct.OSQPSolver, ptr %90, i32 0, i32 0
  %92 = load ptr, ptr %91, align 8
  %93 = getelementptr inbounds %struct.OSQPSettings, ptr %92, i32 0, i32 8
  %94 = load double, ptr %93, align 8
  %95 = fmul double 1.000000e+03, %94
  call void @OSQPVectorf_set_scalar_conditional(ptr noundef %81, ptr noundef %84, double noundef 0x3EB0C6F7A0B5ED8D, double noundef %89, double noundef %95)
  %96 = load ptr, ptr %7, align 8
  %97 = getelementptr inbounds %struct.OSQPWorkspace_, ptr %96, i32 0, i32 4
  %98 = load ptr, ptr %97, align 8
  %99 = load ptr, ptr %7, align 8
  %100 = getelementptr inbounds %struct.OSQPWorkspace_, ptr %99, i32 0, i32 3
  %101 = load ptr, ptr %100, align 8
  call void @OSQPVectorf_ew_reciprocal(ptr noundef %98, ptr noundef %101)
  br label %111

102:                                              ; preds = %66
  %103 = load ptr, ptr %4, align 8
  %104 = getelementptr inbounds %struct.OSQPSolver, ptr %103, i32 0, i32 0
  %105 = load ptr, ptr %104, align 8
  %106 = getelementptr inbounds %struct.OSQPSettings, ptr %105, i32 0, i32 8
  %107 = load double, ptr %106, align 8
  %108 = fdiv double 1.000000e+00, %107
  %109 = load ptr, ptr %7, align 8
  %110 = getelementptr inbounds %struct.OSQPWorkspace_, ptr %109, i32 0, i32 28
  store double %108, ptr %110, align 8
  br label %111

111:                                              ; preds = %102, %78
  %112 = load ptr, ptr %7, align 8
  %113 = getelementptr inbounds %struct.OSQPWorkspace_, ptr %112, i32 0, i32 1
  %114 = load ptr, ptr %113, align 8
  %115 = getelementptr inbounds %struct.linsys_solver, ptr %114, i32 0, i32 8
  %116 = load ptr, ptr %115, align 8
  %117 = load ptr, ptr %7, align 8
  %118 = getelementptr inbounds %struct.OSQPWorkspace_, ptr %117, i32 0, i32 1
  %119 = load ptr, ptr %118, align 8
  %120 = load ptr, ptr %7, align 8
  %121 = getelementptr inbounds %struct.OSQPWorkspace_, ptr %120, i32 0, i32 3
  %122 = load ptr, ptr %121, align 8
  %123 = load ptr, ptr %4, align 8
  %124 = getelementptr inbounds %struct.OSQPSolver, ptr %123, i32 0, i32 0
  %125 = load ptr, ptr %124, align 8
  %126 = getelementptr inbounds %struct.OSQPSettings, ptr %125, i32 0, i32 8
  %127 = load double, ptr %126, align 8
  %128 = call i64 %116(ptr noundef %119, ptr noundef %122, double noundef %127)
  store i64 %128, ptr %6, align 8
  %129 = load ptr, ptr %7, align 8
  %130 = getelementptr inbounds %struct.OSQPWorkspace_, ptr %129, i32 0, i32 32
  %131 = load i64, ptr %130, align 8
  %132 = icmp eq i64 %131, 0
  br i1 %132, label %133, label %144

133:                                              ; preds = %111
  %134 = load ptr, ptr %7, align 8
  %135 = getelementptr inbounds %struct.OSQPWorkspace_, ptr %134, i32 0, i32 29
  %136 = load ptr, ptr %135, align 8
  %137 = call double @osqp_toc(ptr noundef %136)
  %138 = load ptr, ptr %4, align 8
  %139 = getelementptr inbounds %struct.OSQPSolver, ptr %138, i32 0, i32 2
  %140 = load ptr, ptr %139, align 8
  %141 = getelementptr inbounds %struct.OSQPInfo, ptr %140, i32 0, i32 11
  %142 = load double, ptr %141, align 8
  %143 = fadd double %142, %137
  store double %143, ptr %141, align 8
  br label %144

144:                                              ; preds = %133, %111
  %145 = load i64, ptr %6, align 8
  store i64 %145, ptr %3, align 8
  br label %146

146:                                              ; preds = %144, %23, %15
  %147 = load i64, ptr %3, align 8
  ret i64 %147
}