; Function Attrs: nounwind uwtable
define i64 @osqp_update_rho(ptr noundef readonly %0, double noundef %1) local_unnamed_addr #0 {
  %.not = icmp eq ptr %0, null
  br i1 %.not, label %6, label %3

3:                                                ; preds = %2
  %4 = getelementptr inbounds i8, ptr %0, i64 24
  %5 = load ptr, ptr %4, align 8
  %.not35 = icmp eq ptr %5, null
  br i1 %.not35, label %6, label %8

6:                                                ; preds = %3, %2
  %7 = tail call i64 @_osqp_error(i32 noundef 6, ptr noundef nonnull @__func__.osqp_update_rho) #15
  br label %76

8:                                                ; preds = %3
  %9 = fcmp ugt double %1, 0.000000e+00
  br i1 %9, label %13, label %10

10:                                               ; preds = %8
  %11 = tail call i32 (ptr, ...) @printf(ptr noundef nonnull dereferenceable(1) @.str.3, ptr noundef nonnull @__func__.osqp_update_rho)
  %12 = tail call i32 (ptr, ...) @printf(ptr noundef nonnull dereferenceable(1) @.str.12)
  %putchar = tail call i32 @putchar(i32 10)
  br label %76

13:                                               ; preds = %8
  %14 = getelementptr inbounds i8, ptr %5, i64 256
  %15 = load i64, ptr %14, align 8
  %16 = icmp eq i64 %15, 0
  br i1 %16, label %17, label %28

17:                                               ; preds = %13
  %18 = getelementptr inbounds i8, ptr %5, i64 248
  %19 = load i64, ptr %18, align 8
  %20 = icmp eq i64 %19, 1
  br i1 %20, label %21, label %25

21:                                               ; preds = %17
  store i64 0, ptr %18, align 8
  %22 = getelementptr inbounds i8, ptr %0, i64 16
  %23 = load ptr, ptr %22, align 8
  %24 = getelementptr inbounds i8, ptr %23, i64 112
  store double 0.000000e+00, ptr %24, align 8
  br label %25

25:                                               ; preds = %21, %17
  %26 = getelementptr inbounds i8, ptr %5, i64 232
  %27 = load ptr, ptr %26, align 8
  tail call void @osqp_tic(ptr noundef %27) #15
  br label %28

28:                                               ; preds = %25, %13
  %29 = fcmp ogt double %1, 0x3EB0C6F7A0B5ED8D
  %30 = select i1 %29, double %1, double 0x3EB0C6F7A0B5ED8D
  %31 = fcmp olt double %30, 1.000000e+06
  %32 = select i1 %31, double %30, double 1.000000e+06
  %33 = load ptr, ptr %0, align 8
  %34 = getelementptr inbounds i8, ptr %33, i64 64
  store double %32, ptr %34, align 8
  %35 = load ptr, ptr %0, align 8
  %36 = getelementptr inbounds i8, ptr %35, i64 72
  %37 = load i64, ptr %36, align 8
  %.not36 = icmp eq i64 %37, 0
  br i1 %.not36, label %49, label %38

38:                                               ; preds = %28
  %39 = getelementptr inbounds i8, ptr %5, i64 24
  %40 = load ptr, ptr %39, align 8
  %41 = getelementptr inbounds i8, ptr %5, i64 40
  %42 = load ptr, ptr %41, align 8
  %43 = getelementptr inbounds i8, ptr %35, i64 64
  %44 = load double, ptr %43, align 8
  %45 = fmul double %44, 1.000000e+03
  tail call void @OSQPVectorf_set_scalar_conditional(ptr noundef %40, ptr noundef %42, double noundef 0x3EB0C6F7A0B5ED8D, double noundef %44, double noundef %45) #15
  %46 = getelementptr inbounds i8, ptr %5, i64 32
  %47 = load ptr, ptr %46, align 8
  %48 = load ptr, ptr %39, align 8
  tail call void @OSQPVectorf_ew_reciprocal(ptr noundef %47, ptr noundef %48) #15
  br label %54

49:                                               ; preds = %28
  %50 = getelementptr inbounds i8, ptr %35, i64 64
  %51 = load double, ptr %50, align 8
  %52 = fdiv double 1.000000e+00, %51
  %53 = getelementptr inbounds i8, ptr %5, i64 224
  store double %52, ptr %53, align 8
  br label %54

54:                                               ; preds = %49, %38
  %55 = getelementptr inbounds i8, ptr %5, i64 8
  %56 = load ptr, ptr %55, align 8
  %57 = getelementptr inbounds i8, ptr %56, i64 64
  %58 = load ptr, ptr %57, align 8
  %59 = getelementptr inbounds i8, ptr %5, i64 24
  %60 = load ptr, ptr %59, align 8
  %61 = load ptr, ptr %0, align 8
  %62 = getelementptr inbounds i8, ptr %61, i64 64
  %63 = load double, ptr %62, align 8
  %64 = tail call i64 %58(ptr noundef %56, ptr noundef %60, double noundef %63) #15
  %65 = load i64, ptr %14, align 8
  %66 = icmp eq i64 %65, 0
  br i1 %66, label %67, label %76

67:                                               ; preds = %54
  %68 = getelementptr inbounds i8, ptr %5, i64 232
  %69 = load ptr, ptr %68, align 8
  %70 = tail call double @osqp_toc(ptr noundef %69) #15
  %71 = getelementptr inbounds i8, ptr %0, i64 16
  %72 = load ptr, ptr %71, align 8
  %73 = getelementptr inbounds i8, ptr %72, i64 112
  %74 = load double, ptr %73, align 8
  %75 = fadd double %70, %74
  store double %75, ptr %73, align 8
  br label %76

76:                                               ; preds = %54, %67, %10, %6
  %.0 = phi i64 [ 1, %10 ], [ %7, %6 ], [ %64, %67 ], [ %64, %54 ]
  ret i64 %.0
}